(lp0
V's
p1
aV,
p2
aVa
p3
aVadverse
p4
aVall
p5
aVanyone
p6
aVare
p7
aVawesome
p8
aVbe
p9
aVbehavior
p10
aVblood
p11
aVby
p12
aVbye
p13
aVcan
p14
aVcausing
p15
aVchatting
p16
aVcheck
p17
aVcould
p18
aVdata
p19
aVday
p20
aVdetail
p21
aVdo
p22
aVdont
p23
aVdrug
p24
aVentry
p25
aVfind
p26
aVfor
p27
aVgive
p28
aVgood
p29
aVgoodbye
p30
aVhave
p31
aVhello
p32
aVhelp
p33
aVhelpful
p34
aVhelping
p35
aVhey
p36
aVhi
p37
aVhistory
p38
aVhola
p39
aVhospital
p40
aVhow
p41
aVi
p42
aVid
p43
aVis
p44
aVlater
p45
aVlist
p46
aVload
p47
aVlocate
p48
aVlog
p49
aVlooking
p50
aVlookup
p51
aVmanagement
p52
aVme
p53
aVmodule
p54
aVnearby
p55
aVnext
p56
aVnice
p57
aVof
p58
aVoffered
p59
aVopen
p60
aVpatient
p61
aVpharmacy
p62
aVpressure
p63
aVprovide
p64
aVreaction
p65
aVrelated
p66
aVresult
p67
aVsearch
p68
aVsearching
p69
aVsee
p70
aVshow
p71
aVsuitable
p72
aVsupport
p73
aVtask
p74
aVthank
p75
aVthanks
p76
aVthat
p77
aVthere
p78
aVtill
p79
aVtime
p80
aVto
p81
aVtransfer
p82
aVup
p83
aVwant
p84
aVwhat
p85
aVwhich
p86
aVwith
p87
aVyou
p88
a.